; Function Attrs: mustprogress nofree norecurse nosync nounwind willreturn memory(argmem: write) uwtable
define dso_local void @_ZN3ozz9animation11SamplingJob7Context10InvalidateEv(ptr noundef nonnull writeonly align 8 captures(none) dereferenceable(192) initializes((0, 12), (56, 60), (96, 100), (136, 140)) %0) local_unnamed_addr #6 align 2 {
  store ptr null, ptr %0, align 8, !tbaa !41
  %2 = getelementptr inbounds nuw i8, ptr %0, i64 8
  store float 0.000000e+00, ptr %2, align 8, !tbaa !42
  %3 = getelementptr inbounds nuw i8, ptr %0, i64 56
  store i32 0, ptr %3, align 8, !tbaa !43
  %4 = getelementptr inbounds nuw i8, ptr %0, i64 96
  store i32 0, ptr %4, align 8, !tbaa !44
  %5 = getelementptr inbounds nuw i8, ptr %0, i64 136
  store i32 0, ptr %5, align 8, !tbaa !45
  ret void
}